target datalayout = "e-m:e-p270:32:32-p271:32:32-p272:64:64-i64:64-i128:128-f80:128-n8:16:32:64-S128"
target triple = "x86_64-unknown-linux-gnu"

%struct.QemuMutex = type { %union.pthread_mutex_t, i8 }
%union.pthread_mutex_t = type { %struct.__pthread_mutex_s }
%struct.__pthread_mutex_s = type { i32, i32, i32, i32, i32, i16, i16, %struct.__pthread_internal_list }
%struct.__pthread_internal_list = type { ptr, ptr }
%struct.MigrationIncomingState = type { ptr, [2 x ptr], ptr, ptr, %struct.QemuSemaphore, %struct.QemuEvent, %struct.AnnounceTimer, i64, i8, %struct.QemuThread, i8, i8, %struct.QemuThread, i32, i32, ptr, %struct.QemuMutex, ptr, i32, ptr, %struct.QemuSemaphore, %struct.QemuThread, i32, %struct.QemuMutex, ptr, ptr, ptr, ptr, i32, ptr, ptr, %struct.QemuSemaphore, ptr, %struct.QemuSemaphore, %struct.QemuSemaphore, %struct.QemuSemaphore, ptr, ptr, i32, %struct.QemuMutex, %struct.QemuCond, i32 }
%struct.QemuEvent = type { i32, i8 }
%struct.AnnounceTimer = type { ptr, %struct.AnnounceParameters, i32, i32 }
%struct.AnnounceParameters = type { i64, i64, i64, i64, i8, ptr, ptr }
%struct.QemuThread = type { i64 }
%struct.QemuSemaphore = type { %struct.QemuMutex, %struct.QemuCond, i32 }
%struct.QemuCond = type { %union.pthread_cond_t, i8 }
%union.pthread_cond_t = type { %struct.__pthread_cond_s }
%struct.__pthread_cond_s = type { %union.__atomic_wide_counter, %union.__atomic_wide_counter, [2 x i32], [2 x i32], i32, i32, [2 x i32] }
%union.__atomic_wide_counter = type { i64 }

@.str.18 = private unnamed_addr constant [28 x i8] c"%s: incrementing failed: %s\00", align 1
@__func__.postcopy_fault_thread_notify = private unnamed_addr constant [29 x i8] c"postcopy_fault_thread_notify\00", align 1

; Function Attrs: nounwind sspstrong uwtable
define dso_local void @postcopy_fault_thread_notify(ptr noundef %mis) #0 {
entry:
  %mis.addr = alloca ptr, align 8
  %tmp64 = alloca i64, align 8
  store ptr %mis, ptr %mis.addr, align 8
  store i64 1, ptr %tmp64, align 8
  %0 = load ptr, ptr %mis.addr, align 8
  %userfault_event_fd = getelementptr inbounds %struct.MigrationIncomingState, ptr %0, i32 0, i32 14
  %1 = load i32, ptr %userfault_event_fd, align 4
  %call = call i64 @write(i32 noundef %1, ptr noundef %tmp64, i64 noundef 8)
  %cmp = icmp ne i64 %call, 8
  br i1 %cmp, label %if.then, label %if.end

if.then:                                          ; preds = %entry
  %call1 = call ptr @__errno_location() #10
  %2 = load i32, ptr %call1, align 4
  %call2 = call ptr @strerror(i32 noundef %2) #11
  call void (ptr, ...) @error_report(ptr noundef @.str.18, ptr noundef @__func__.postcopy_fault_thread_notify, ptr noundef %call2)
  br label %if.end

if.end:                                           ; preds = %if.then, %entry
  ret void
}