; Function Attrs: nounwind sspstrong uwtable
define dso_local void @postcopy_fault_thread_notify(ptr noundef readonly captures(none) %mis) local_unnamed_addr #0 {
entry:
  %tmp64 = alloca i64, align 8
  store i64 1, ptr %tmp64, align 8
  %userfault_event_fd = getelementptr inbounds nuw i8, ptr %mis, i64 276
  %0 = load i32, ptr %userfault_event_fd, align 4
  %call = call i64 @write(i32 noundef %0, ptr noundef nonnull %tmp64, i64 noundef 8) #16
  %cmp.not = icmp eq i64 %call, 8
  br i1 %cmp.not, label %if.end, label %if.then

if.then:                                          ; preds = %entry
  %call1 = tail call ptr @__errno_location() #18
  %1 = load i32, ptr %call1, align 4
  %call2 = tail call ptr @strerror(i32 noundef %1) #16
  tail call void (ptr, ...) @error_report(ptr noundef nonnull @.str.18, ptr noundef nonnull @__func__.postcopy_fault_thread_notify, ptr noundef %call2) #16
  br label %if.end

if.end:                                           ; preds = %if.then, %entry
  ret void
}